; ModuleID = '7/1285.c'
source_filename = "7/1285.c"
target datalayout = "e-m:e-p270:32:32-p271:32:32-p272:64:64-i64:64-f80:128-n8:16:32:64-S128"
target triple = "x86_64-pc-linux-gnu"

@.str = private unnamed_addr constant [7 x i8] c"%s%s%s\00", align 1
@.str.1 = private unnamed_addr constant [3 x i8] c"%s\00", align 1
@.str.2 = private unnamed_addr constant [3 x i8] c"%c\00", align 1

; Function Attrs: noinline nounwind uwtable
define dso_local i32 @main() #0 {
  %1 = alloca i32, align 4
  %2 = alloca [256 x i8], align 16
  %3 = alloca [256 x i8], align 16
  %4 = alloca [256 x i8], align 16
  %5 = alloca i32, align 4
  %6 = alloca i32, align 4
  %7 = alloca i32, align 4
  %8 = alloca i32, align 4
  %9 = alloca i32, align 4
  %10 = alloca i32, align 4
  store i32 0, i32* %1, align 4
  %11 = bitcast [256 x i8]* %2 to i8*
  call void @llvm.memset.p0i8.i64(i8* align 16 %11, i8 0, i64 256, i1 false)
  %12 = bitcast i8* %11 to <{ i8, [255 x i8] }>*
  %13 = getelementptr inbounds <{ i8, [255 x i8] }>, <{ i8, [255 x i8] }>* %12, i32 0, i32 0
  store i8 32, i8* %13, align 16
  %14 = bitcast [256 x i8]* %3 to i8*
  call void @llvm.memset.p0i8.i64(i8* align 16 %14, i8 0, i64 256, i1 false)
  %15 = bitcast i8* %14 to <{ i8, [255 x i8] }>*
  %16 = getelementptr inbounds <{ i8, [255 x i8] }>, <{ i8, [255 x i8] }>* %15, i32 0, i32 0
  store i8 32, i8* %16, align 16
  %17 = bitcast [256 x i8]* %4 to i8*
  call void @llvm.memset.p0i8.i64(i8* align 16 %17, i8 0, i64 256, i1 false)
  %18 = bitcast i8* %17 to <{ i8, [255 x i8] }>*
  %19 = getelementptr inbounds <{ i8, [255 x i8] }>, <{ i8, [255 x i8] }>* %18, i32 0, i32 0
  store i8 32, i8* %19, align 16
  %20 = getelementptr inbounds [256 x i8], [256 x i8]* %2, i64 0, i64 0
  %21 = getelementptr inbounds [256 x i8], [256 x i8]* %3, i64 0, i64 0
  %22 = getelementptr inbounds [256 x i8], [256 x i8]* %4, i64 0, i64 0
  %23 = call i32 (i8*, ...) @__isoc99_scanf(i8* getelementptr inbounds ([7 x i8], [7 x i8]* @.str, i64 0, i64 0), i8* %20, i8* %21, i8* %22)
  %24 = getelementptr inbounds [256 x i8], [256 x i8]* %2, i64 0, i64 0
  %25 = call i64 @strlen(i8* %24) #4
  %26 = trunc i64 %25 to i32
  store i32 %26, i32* %5, align 4
  %27 = getelementptr inbounds [256 x i8], [256 x i8]* %3, i64 0, i64 0
  %28 = call i64 @strlen(i8* %27) #4
  %29 = trunc i64 %28 to i32
  store i32 %29, i32* %6, align 4
  store i32 0, i32* %9, align 4
  store i32 0, i32* %7, align 4
  br label %30

30:                                               ; preds = %65, %0
  %31 = load i32, i32* %7, align 4
  %32 = load i32, i32* %5, align 4
  %33 = load i32, i32* %6, align 4
  %34 = sub nsw i32 %32, %33
  %35 = icmp sle i32 %31, %34
  br i1 %35, label %36, label %68

36:                                               ; preds = %30
  store i32 1, i32* %10, align 4
  store i32 0, i32* %8, align 4
  br label %37

37:                                               ; preds = %57, %36
  %38 = load i32, i32* %8, align 4
  %39 = load i32, i32* %6, align 4
  %40 = icmp slt i32 %38, %39
  br i1 %40, label %41, label %60

41:                                               ; preds = %37
  %42 = load i32, i32* %8, align 4
  %43 = sext i32 %42 to i64
  %44 = getelementptr inbounds [256 x i8], [256 x i8]* %3, i64 0, i64 %43
  %45 = load i8, i8* %44, align 1
  %46 = sext i8 %45 to i32
  %47 = load i32, i32* %8, align 4
  %48 = load i32, i32* %7, align 4
  %49 = add nsw i32 %47, %48
  %50 = sext i32 %49 to i64
  %51 = getelementptr inbounds [256 x i8], [256 x i8]* %2, i64 0, i64 %50
  %52 = load i8, i8* %51, align 1
  %53 = sext i8 %52 to i32
  %54 = icmp ne i32 %46, %53
  br i1 %54, label %55, label %56

55:                                               ; preds = %41
  store i32 0, i32* %10, align 4
  br label %60

56:                                               ; preds = %41
  br label %57

57:                                               ; preds = %56
  %58 = load i32, i32* %8, align 4
  %59 = add nsw i32 %58, 1
  store i32 %59, i32* %8, align 4
  br label %37

60:                                               ; preds = %55, %37
  %61 = load i32, i32* %10, align 4
  %62 = icmp eq i32 %61, 1
  br i1 %62, label %63, label %64

63:                                               ; preds = %60
  store i32 1, i32* %9, align 4
  br label %68

64:                                               ; preds = %60
  br label %65

65:                                               ; preds = %64
  %66 = load i32, i32* %7, align 4
  %67 = add nsw i32 %66, 1
  store i32 %67, i32* %7, align 4
  br label %30

68:                                               ; preds = %63, %30
  %69 = load i32, i32* %9, align 4
  %70 = icmp eq i32 %69, 0
  br i1 %70, label %71, label %74

71:                                               ; preds = %68
  %72 = getelementptr inbounds [256 x i8], [256 x i8]* %2, i64 0, i64 0
  %73 = call i32 (i8*, ...) @printf(i8* getelementptr inbounds ([3 x i8], [3 x i8]* @.str.1, i64 0, i64 0), i8* %72)
  br label %123

74:                                               ; preds = %68
  store i32 0, i32* %8, align 4
  br label %75

75:                                               ; preds = %86, %74
  %76 = load i32, i32* %8, align 4
  %77 = load i32, i32* %7, align 4
  %78 = icmp slt i32 %76, %77
  br i1 %78, label %79, label %89

79:                                               ; preds = %75
  %80 = load i32, i32* %8, align 4
  %81 = sext i32 %80 to i64
  %82 = getelementptr inbounds [256 x i8], [256 x i8]* %2, i64 0, i64 %81
  %83 = load i8, i8* %82, align 1
  %84 = sext i8 %83 to i32
  %85 = call i32 (i8*, ...) @printf(i8* getelementptr inbounds ([3 x i8], [3 x i8]* @.str.2, i64 0, i64 0), i32 %84)
  br label %86

86:                                               ; preds = %79
  %87 = load i32, i32* %8, align 4
  %88 = add nsw i32 %87, 1
  store i32 %88, i32* %8, align 4
  br label %75

89:                                               ; preds = %75
  store i32 0, i32* %8, align 4
  br label %90

90:                                               ; preds = %101, %89
  %91 = load i32, i32* %8, align 4
  %92 = load i32, i32* %6, align 4
  %93 = icmp slt i32 %91, %92
  br i1 %93, label %94, label %104

94:                                               ; preds = %90
  %95 = load i32, i32* %8, align 4
  %96 = sext i32 %95 to i64
  %97 = getelementptr inbounds [256 x i8], [256 x i8]* %4, i64 0, i64 %96
  %98 = load i8, i8* %97, align 1
  %99 = sext i8 %98 to i32
  %100 = call i32 (i8*, ...) @printf(i8* getelementptr inbounds ([3 x i8], [3 x i8]* @.str.2, i64 0, i64 0), i32 %99)
  br label %101

101:                                              ; preds = %94
  %102 = load i32, i32* %8, align 4
  %103 = add nsw i32 %102, 1
  store i32 %103, i32* %8, align 4
  br label %90

104:                                              ; preds = %90
  %105 = load i32, i32* %7, align 4
  %106 = load i32, i32* %6, align 4
  %107 = add nsw i32 %105, %106
  store i32 %107, i32* %8, align 4
  br label %108

108:                                              ; preds = %119, %104
  %109 = load i32, i32* %8, align 4
  %110 = load i32, i32* %5, align 4
  %111 = icmp slt i32 %109, %110
  br i1 %111, label %112, label %122

112:                                              ; preds = %108
  %113 = load i32, i32* %8, align 4
  %114 = sext i32 %113 to i64
  %115 = getelementptr inbounds [256 x i8], [256 x i8]* %2, i64 0, i64 %114
  %116 = load i8, i8* %115, align 1
  %117 = sext i8 %116 to i32
  %118 = call i32 (i8*, ...) @printf(i8* getelementptr inbounds ([3 x i8], [3 x i8]* @.str.2, i64 0, i64 0), i32 %117)
  br label %119

119:                                              ; preds = %112
  %120 = load i32, i32* %8, align 4
  %121 = add nsw i32 %120, 1
  store i32 %121, i32* %8, align 4
  br label %108

122:                                              ; preds = %108
  br label %123

123:                                              ; preds = %122, %71
  ret i32 0
}

; Function Attrs: argmemonly nounwind willreturn
declare void @llvm.memset.p0i8.i64(i8* nocapture writeonly, i8, i64, i1 immarg) #1

declare dso_local i32 @__isoc99_scanf(i8*, ...) #2

; Function Attrs: nounwind readonly
declare dso_local i64 @strlen(i8*) #3

declare dso_local i32 @printf(i8*, ...) #2


!llvm.module.flags = !{!0}
!llvm.ident = !{!1}

!0 = !{i32 1, !"wchar_size", i32 4}
!1 = !{!"clang version 10.0.0-4ubuntu1 "}
